; Function Attrs: nounwind uwtable
define internal fastcc ptr @ztryrealloc_usable_internal(ptr noundef %ptr, i64 noundef %size, ptr noundef writeonly %usable) unnamed_addr #3 {
entry:
  %cmp = icmp eq i64 %size, 0
  %cmp1 = icmp ne ptr %ptr, null
  %or.cond = and i1 %cmp1, %cmp
  br i1 %or.cond, label %zfree.exit, label %if.end3

zfree.exit:                                       ; preds = %entry
  %call.i = tail call i64 @je_malloc_usable_size(ptr noundef nonnull %ptr) #24
  %0 = atomicrmw sub ptr @used_memory, i64 %call.i monotonic, align 8
  tail call void @je_free(ptr noundef nonnull %ptr) #24
  %tobool.not = icmp eq ptr %usable, null
  br i1 %tobool.not, label %return, label %return.sink.split

if.end3:                                          ; preds = %entry
  %cmp4 = icmp eq ptr %ptr, null
  %cmp.i.i = icmp ugt i64 %size, 9223372036854775806
  br i1 %cmp4, label %if.then5, label %if.end6

if.then5:                                         ; preds = %if.end3
  br i1 %cmp.i.i, label %ztrymalloc_usable_internal.exit.i, label %if.end.i.i

if.end.i.i:                                       ; preds = %if.then5
  %cond.i.i = select i1 %cmp, i64 8, i64 %size
  %call.i.i = tail call noalias ptr @je_malloc(i64 noundef %cond.i.i) #25
  %tobool.not.i.i = icmp eq ptr %call.i.i, null
  br i1 %tobool.not.i.i, label %ztrymalloc_usable_internal.exit.i, label %if.end3.i.i

if.end3.i.i:                                      ; preds = %if.end.i.i
  %call4.i.i = tail call i64 @je_malloc_usable_size(ptr noundef nonnull %call.i.i) #24
  %1 = atomicrmw add ptr @used_memory, i64 %call4.i.i monotonic, align 8
  br label %ztrymalloc_usable_internal.exit.i

ztrymalloc_usable_internal.exit.i:                ; preds = %if.end3.i.i, %if.end.i.i, %if.then5
  %usable_size.0.i = phi i64 [ 0, %if.then5 ], [ 0, %if.end.i.i ], [ %call4.i.i, %if.end3.i.i ]
  %retval.0.i.i = phi ptr [ null, %if.then5 ], [ null, %if.end.i.i ], [ %call.i.i, %if.end3.i.i ]
  %tobool.not.i = icmp eq ptr %usable, null
  br i1 %tobool.not.i, label %return, label %return.sink.split

if.end6:                                          ; preds = %if.end3
  %call.i24 = tail call i64 @je_malloc_usable_size(ptr noundef nonnull %ptr) #24
  br i1 %cmp.i.i, label %zfree.exit25, label %if.end12

zfree.exit25:                                     ; preds = %if.end6
  %2 = atomicrmw sub ptr @used_memory, i64 %call.i24 monotonic, align 8
  tail call void @je_free(ptr noundef nonnull %ptr) #24
  %tobool9.not = icmp eq ptr %usable, null
  br i1 %tobool9.not, label %return, label %return.sink.split

if.end12:                                         ; preds = %if.end6
  %call14 = tail call ptr @je_realloc(ptr noundef nonnull %ptr, i64 noundef %size) #27
  %cmp15 = icmp eq ptr %call14, null
  br i1 %cmp15, label %if.then16, label %if.end20

if.then16:                                        ; preds = %if.end12
  %tobool17.not = icmp eq ptr %usable, null
  br i1 %tobool17.not, label %return, label %return.sink.split

if.end20:                                         ; preds = %if.end12
  %3 = atomicrmw sub ptr @used_memory, i64 %call.i24 monotonic, align 8
  %call21 = tail call i64 @je_malloc_usable_size(ptr noundef nonnull %call14) #24
  %4 = atomicrmw add ptr @used_memory, i64 %call21 monotonic, align 8
  %tobool24.not = icmp eq ptr %usable, null
  br i1 %tobool24.not, label %return, label %return.sink.split

return.sink.split:                                ; preds = %if.end20, %if.then16, %zfree.exit25, %ztrymalloc_usable_internal.exit.i, %zfree.exit
  %usable_size.0.i.sink = phi i64 [ 0, %zfree.exit ], [ %usable_size.0.i, %ztrymalloc_usable_internal.exit.i ], [ 0, %zfree.exit25 ], [ 0, %if.then16 ], [ %call21, %if.end20 ]
  %retval.0.ph = phi ptr [ null, %zfree.exit ], [ %retval.0.i.i, %ztrymalloc_usable_internal.exit.i ], [ null, %zfree.exit25 ], [ null, %if.then16 ], [ %call14, %if.end20 ]
  store i64 %usable_size.0.i.sink, ptr %usable, align 8
  br label %return

return:                                           ; preds = %return.sink.split, %ztrymalloc_usable_internal.exit.i, %if.end20, %if.then16, %zfree.exit25, %zfree.exit
  %retval.0 = phi ptr [ null, %zfree.exit ], [ null, %zfree.exit25 ], [ null, %if.then16 ], [ %call14, %if.end20 ], [ %retval.0.i.i, %ztrymalloc_usable_internal.exit.i ], [ %retval.0.ph, %return.sink.split ]
  ret ptr %retval.0
}